target datalayout = "e-m:e-p270:32:32-p271:32:32-p272:64:64-i64:64-i128:128-f80:128-n8:16:32:64-S128"
target triple = "x86_64-pc-linux-gnu"

%struct.client = type { i64, i64, ptr, i8, i8, i8, i8, i32, ptr, ptr, ptr, ptr, ptr, i64, i64, i32, ptr, i32, i32, ptr, i64, ptr, ptr, ptr, ptr, ptr, i32, i32, i64, ptr, i64, ptr, i64, i64, i64, i32, ptr, i64, i64, i32, i32, i32, i32, i64, i64, ptr, i64, i64, i64, i64, i64, i64, i64, i64, [41 x i8], i32, ptr, i32, i32, i64, %struct.multiState, %struct.blockingState, i64, ptr, ptr, ptr, ptr, ptr, ptr, ptr, ptr, ptr, ptr, ptr, ptr, ptr, ptr, i64, ptr, i64, i32, ptr, ptr, ptr, i64, %struct.listNode, i64, i64, i32, i64, ptr }
%struct.multiState = type { ptr, i32, i32, i32, i64, i32 }
%struct.blockingState = type { i32, i64, i32, ptr, i32, i32, i64, ptr, ptr, i64 }
%struct.listNode = type { ptr, ptr, ptr }

; Function Attrs: nounwind uwtable
define dso_local void @ldbDisable(ptr noundef %0) #0 {
  %2 = alloca ptr, align 8
  store ptr %0, ptr %2, align 8, !tbaa !110
  %3 = load ptr, ptr %2, align 8, !tbaa !110
  %4 = getelementptr inbounds nuw %struct.client, ptr %3, i32 0, i32 1
  %5 = load i64, ptr %4, align 8, !tbaa !64
  %6 = and i64 %5, -100663297
  store i64 %6, ptr %4, align 8, !tbaa !64
  ret void
}

; Function Attrs: nounwind uwtable
define dso_local void @evalGenericCommandWithDebugging(ptr noundef %0, i32 noundef %1) #0 {
  %3 = alloca ptr, align 8
  %4 = alloca i32, align 4
  store ptr %0, ptr %3, align 8, !tbaa !110
  store i32 %1, ptr %4, align 4, !tbaa !19
  %5 = load ptr, ptr %3, align 8, !tbaa !110
  %6 = call i32 @ldbStartSession(ptr noundef %5)
  %7 = icmp ne i32 %6, 0
  br i1 %7, label %8, label %12

8:                                                ; preds = %2
  %9 = load ptr, ptr %3, align 8, !tbaa !110
  %10 = load i32, ptr %4, align 4, !tbaa !19
  call void @evalGenericCommand(ptr noundef %9, i32 noundef %10)
  %11 = load ptr, ptr %3, align 8, !tbaa !110
  call void @ldbEndSession(ptr noundef %11)
  br label %14

12:                                               ; preds = %2
  %13 = load ptr, ptr %3, align 8, !tbaa !110
  call void @ldbDisable(ptr noundef %13)
  br label %14

14:                                               ; preds = %12, %8
  ret void
}