; Function Attrs: nounwind uwtable
define dso_local void @evalGenericCommandWithDebugging(ptr noundef %0, i32 noundef %1) local_unnamed_addr #0 {
  %3 = tail call i32 @ldbStartSession(ptr noundef %0)
  %.not = icmp eq i32 %3, 0
  br i1 %.not, label %5, label %4

4:                                                ; preds = %2
  tail call void @evalGenericCommand(ptr noundef %0, i32 noundef %1)
  tail call void @ldbEndSession(ptr noundef %0)
  br label %9

5:                                                ; preds = %2
  %6 = getelementptr inbounds nuw i8, ptr %0, i64 8
  %7 = load i64, ptr %6, align 8, !tbaa !65
  %8 = and i64 %7, -100663297
  store i64 %8, ptr %6, align 8, !tbaa !65
  br label %9

9:                                                ; preds = %5, %4
  ret void
}